; Function Attrs: mustprogress uwtable
define hidden void @hb_set_del_range(ptr noundef %0, i32 noundef %1, i32 noundef %2) local_unnamed_addr #3 {
  %4 = getelementptr inbounds i8, ptr %0, i64 16
  %5 = getelementptr inbounds i8, ptr %0, i64 64
  %6 = load i8, ptr %5, align 8
  %7 = trunc i8 %6 to i1
  br i1 %7, label %8, label %10

8:                                                ; preds = %3
  %9 = tail call noundef zeroext i1 @_ZN12hb_bit_set_t9add_rangeEjj(ptr noundef nonnull align 8 dereferenceable(48) %4, i32 noundef %1, i32 noundef %2)
  br label %_ZN14hb_sparseset_tI23hb_bit_set_invertible_tE9del_rangeEjj.exit

10:                                               ; preds = %3
  tail call void @_ZN12hb_bit_set_t9del_rangeEjj(ptr noundef nonnull align 8 dereferenceable(48) %4, i32 noundef %1, i32 noundef %2)
  br label %_ZN14hb_sparseset_tI23hb_bit_set_invertible_tE9del_rangeEjj.exit

_ZN14hb_sparseset_tI23hb_bit_set_invertible_tE9del_rangeEjj.exit: ; preds = %8, %10
  ret void
}